; Function Attrs: mustprogress nounwind uwtable
define internal void @"_ZN4absl12lts_2024072222internal_any_invocable22LocalManagerNontrivialIZN9grpc_core13ClientChannel25RemoveConnectivityWatcherEPNS3_38AsyncConnectivityStateWatcherInterfaceEE3$_0EEvNS1_14FunctionToCallEPNS1_15TypeErasedStateESA_"(i1 noundef zeroext %0, ptr noundef captures(none) %1, ptr noundef writeonly captures(none) %2) #9 personality ptr @__gxx_personality_v0 {
  br i1 %0, label %8, label %.thread

.thread:                                          ; preds = %3
  store ptr null, ptr %2, align 8, !tbaa !219
  %4 = load ptr, ptr %1, align 8, !tbaa !219
  store ptr %4, ptr %2, align 8, !tbaa !219
  store ptr null, ptr %1, align 8, !tbaa !219
  %5 = getelementptr inbounds nuw i8, ptr %2, i64 8
  %6 = getelementptr inbounds nuw i8, ptr %1, i64 8
  %7 = load ptr, ptr %6, align 8, !tbaa !322
  store ptr %7, ptr %5, align 8, !tbaa !322
  br label %"_ZZN9grpc_core13ClientChannel25RemoveConnectivityWatcherEPNS_38AsyncConnectivityStateWatcherInterfaceEEN3$_0D2Ev.exit"

8:                                                ; preds = %3
  %.val.pr = load ptr, ptr %1, align 8, !tbaa !219
  %.not.i.i = icmp eq ptr %.val.pr, null
  br i1 %.not.i.i, label %"_ZZN9grpc_core13ClientChannel25RemoveConnectivityWatcherEPNS_38AsyncConnectivityStateWatcherInterfaceEEN3$_0D2Ev.exit", label %9

9:                                                ; preds = %8
  %10 = getelementptr inbounds nuw i8, ptr %.val.pr, i64 8
  %11 = atomicrmw add ptr %10, i64 -4294967295 acq_rel, align 8
  %.mask.i.i.i = and i64 %11, -4294967296
  %12 = icmp eq i64 %.mask.i.i.i, 4294967296
  br i1 %12, label %13, label %.noexc.i.i, !prof !26

13:                                               ; preds = %9
  %14 = load ptr, ptr %.val.pr, align 8, !tbaa !8
  %15 = getelementptr inbounds nuw i8, ptr %14, i64 16
  %16 = load ptr, ptr %15, align 8
  invoke void %16(ptr noundef nonnull align 8 dereferenceable(16) %.val.pr)
          to label %.noexc.i.i unwind label %23

.noexc.i.i:                                       ; preds = %13, %9
  %17 = atomicrmw sub ptr %10, i64 1 acq_rel, align 8
  %18 = icmp eq i64 %17, 1
  br i1 %18, label %19, label %"_ZZN9grpc_core13ClientChannel25RemoveConnectivityWatcherEPNS_38AsyncConnectivityStateWatcherInterfaceEEN3$_0D2Ev.exit", !prof !26

19:                                               ; preds = %.noexc.i.i
  %20 = load ptr, ptr %.val.pr, align 8, !tbaa !8
  %21 = getelementptr inbounds nuw i8, ptr %20, i64 8
  %22 = load ptr, ptr %21, align 8
  tail call void %22(ptr noundef nonnull align 8 dereferenceable(16) %.val.pr) #42
  br label %"_ZZN9grpc_core13ClientChannel25RemoveConnectivityWatcherEPNS_38AsyncConnectivityStateWatcherInterfaceEEN3$_0D2Ev.exit"

23:                                               ; preds = %13
  %24 = landingpad { ptr, i32 }
          catch ptr null
  %25 = extractvalue { ptr, i32 } %24, 0
  tail call void @__clang_call_terminate(ptr %25) #47
  unreachable

"_ZZN9grpc_core13ClientChannel25RemoveConnectivityWatcherEPNS_38AsyncConnectivityStateWatcherInterfaceEEN3$_0D2Ev.exit": ; preds = %.thread, %8, %.noexc.i.i, %19
  ret void
}